target datalayout = "e-m:e-p270:32:32-p271:32:32-p272:64:64-i64:64-i128:128-f80:128-n8:16:32:64-S128"
target triple = "x86_64-pc-linux-gnu"

%struct.RBasic = type { i64, i64 }
%struct.RString = type { %struct.RBasic, i64, %union.anon.33 }
%union.anon.33 = type { %struct.anon.34 }
%struct.anon.34 = type { ptr, %union.anon.35 }
%union.anon.35 = type { i64 }
%struct.getgrnam_r_args = type { ptr, ptr, i64, ptr, %struct.group }
%struct.group = type { ptr, ptr, i32, ptr }
%struct.anon.36 = type { [1 x i8] }

@rb_eArgError = external global i64, align 8
@.str.179 = private unnamed_addr constant [11 x i8] c"getgrnam_r\00", align 1
@.str.180 = private unnamed_addr constant [26 x i8] c"can't find group for %li\0B\00", align 1

; Function Attrs: inlinehint nounwind sspstrong willreturn memory(read) uwtable
define internal i64 @RB_FL_TEST_RAW(i64 noundef %0, i64 noundef %1) #5 {
  %3 = alloca i64, align 8
  %4 = alloca i64, align 8
  store i64 %0, ptr %3, align 8, !tbaa !35
  store i64 %1, ptr %4, align 8, !tbaa !35
  %5 = load i64, ptr %3, align 8, !tbaa !35
  %6 = inttoptr i64 %5 to ptr
  %7 = getelementptr inbounds nuw %struct.RBasic, ptr %6, i32 0, i32 0
  %8 = load i64, ptr %7, align 8, !tbaa !215
  %9 = load i64, ptr %4, align 8, !tbaa !35
  %10 = and i64 %8, %9
  ret i64 %10
}

; Function Attrs: inlinehint nounwind sspstrong willreturn memory(read) uwtable
define internal i64 @RSTRING_LEN(i64 noundef %0) #5 {
  %2 = alloca i64, align 8
  store i64 %0, ptr %2, align 8, !tbaa !35
  %3 = load i64, ptr %2, align 8, !tbaa !35
  %4 = inttoptr i64 %3 to ptr
  %5 = getelementptr inbounds nuw %struct.RString, ptr %4, i32 0, i32 1
  %6 = load i64, ptr %5, align 8, !tbaa !266
  ret i64 %6
}

; Function Attrs: inlinehint nounwind sspstrong willreturn memory(read) uwtable
define internal zeroext i1 @RB_FL_ANY_RAW(i64 noundef %0, i64 noundef %1) #5 {
  %3 = alloca i64, align 8
  %4 = alloca i64, align 8
  store i64 %0, ptr %3, align 8, !tbaa !35
  store i64 %1, ptr %4, align 8, !tbaa !35
  %5 = load i64, ptr %3, align 8, !tbaa !35
  %6 = load i64, ptr %4, align 8, !tbaa !35
  %7 = call i64 @RB_FL_TEST_RAW(i64 noundef %5, i64 noundef %6) #29
  %8 = icmp ne i64 %7, 0
  ret i1 %8
}

; Function Attrs: inlinehint nounwind sspstrong willreturn memory(read, argmem: readwrite) uwtable
define internal void @rbimpl_rstring_getmem(ptr dead_on_unwind noalias writable sret(%struct.RString) align 8 %0, i64 noundef %1) #21 {
  %3 = alloca i64, align 8
  store i64 %1, ptr %3, align 8, !tbaa !35
  %4 = load i64, ptr %3, align 8, !tbaa !35
  %5 = call zeroext i1 @RB_FL_ANY_RAW(i64 noundef %4, i64 noundef 8192) #29
  br i1 %5, label %6, label %9

6:                                                ; preds = %2
  %7 = load i64, ptr %3, align 8, !tbaa !35
  %8 = inttoptr i64 %7 to ptr
  call void @llvm.memcpy.p0.p0.i64(ptr align 8 %0, ptr align 8 %8, i64 40, i1 false), !tbaa.struct !274
  br label %20

9:                                                ; preds = %2
  %10 = load i64, ptr %3, align 8, !tbaa !35
  %11 = call i64 @RSTRING_LEN(i64 noundef %10) #29
  %12 = getelementptr inbounds nuw %struct.RString, ptr %0, i32 0, i32 1
  store i64 %11, ptr %12, align 8, !tbaa !266
  %13 = load i64, ptr %3, align 8, !tbaa !35
  %14 = inttoptr i64 %13 to ptr
  %15 = getelementptr inbounds nuw %struct.RString, ptr %14, i32 0, i32 2
  %16 = getelementptr inbounds nuw %struct.anon.36, ptr %15, i32 0, i32 0
  %17 = getelementptr inbounds [1 x i8], ptr %16, i64 0, i64 0
  %18 = getelementptr inbounds nuw %struct.RString, ptr %0, i32 0, i32 2
  %19 = getelementptr inbounds nuw %struct.anon.34, ptr %18, i32 0, i32 0
  store ptr %17, ptr %19, align 8, !tbaa !66
  br label %20

20:                                               ; preds = %9, %6
  ret void
}

; Function Attrs: inlinehint nounwind sspstrong uwtable
define internal ptr @RSTRING_PTR(i64 noundef %0) #1 {
  %2 = alloca i64, align 8
  %3 = alloca ptr, align 8
  %4 = alloca %struct.RString, align 8
  store i64 %0, ptr %2, align 8, !tbaa !35
  call void @llvm.lifetime.start.p0(i64 8, ptr %3) #27
  %5 = load i64, ptr %2, align 8, !tbaa !35
  call void @rbimpl_rstring_getmem(ptr dead_on_unwind writable sret(%struct.RString) align 8 %4, i64 noundef %5) #33
  %6 = getelementptr inbounds nuw %struct.RString, ptr %4, i32 0, i32 2
  %7 = getelementptr inbounds nuw %struct.anon.34, ptr %6, i32 0, i32 0
  %8 = load ptr, ptr %7, align 8, !tbaa !66
  store ptr %8, ptr %3, align 8, !tbaa !64
  %9 = load ptr, ptr %3, align 8, !tbaa !64
  call void @llvm.lifetime.end.p0(i64 8, ptr %3) #27
  ret ptr %9
}

; Function Attrs: inlinehint nounwind sspstrong uwtable
define internal i32 @RB_NUM2UINT(i64 noundef %0) #1 {
  %2 = alloca i64, align 8
  %3 = alloca i64, align 8
  store i64 %0, ptr %2, align 8, !tbaa !35
  call void @llvm.lifetime.start.p0(i64 8, ptr %3) #27
  %4 = load i64, ptr %2, align 8, !tbaa !35
  %5 = call i64 @rb_num2uint(i64 noundef %4)
  store i64 %5, ptr %3, align 8, !tbaa !35
  %6 = load i64, ptr %3, align 8, !tbaa !35
  %7 = trunc i64 %6 to i32
  call void @llvm.lifetime.end.p0(i64 8, ptr %3) #27
  ret i32 %7
}

; Function Attrs: inlinehint nounwind sspstrong willreturn memory(none) uwtable
define internal zeroext i1 @RB_NIL_P(i64 noundef %0) #4 {
  %2 = alloca i64, align 8
  store i64 %0, ptr %2, align 8, !tbaa !35
  %3 = load i64, ptr %2, align 8, !tbaa !35
  %4 = icmp eq i64 %3, 4
  ret i1 %4
}

; Function Attrs: inlinehint nounwind sspstrong willreturn memory(none) uwtable
define internal zeroext i1 @RB_FIXNUM_P(i64 noundef %0) #4 {
  %2 = alloca i64, align 8
  store i64 %0, ptr %2, align 8, !tbaa !35
  %3 = load i64, ptr %2, align 8, !tbaa !35
  %4 = and i64 %3, 1
  %5 = icmp ne i64 %4, 0
  ret i1 %5
}

; Function Attrs: nounwind sspstrong uwtable
define internal i32 @obj2gid(i64 noundef %0, ptr noundef %1) #0 {
  %3 = alloca i64, align 8
  %4 = alloca ptr, align 8
  %5 = alloca i32, align 4
  %6 = alloca i64, align 8
  %7 = alloca ptr, align 8
  %8 = alloca ptr, align 8
  %9 = alloca ptr, align 8
  %10 = alloca i64, align 8
  %11 = alloca i32, align 4
  %12 = alloca %struct.getgrnam_r_args, align 8
  store i64 %0, ptr %3, align 8, !tbaa !35
  store ptr %1, ptr %4, align 8, !tbaa !70
  call void @llvm.lifetime.start.p0(i64 4, ptr %5) #27
  call void @llvm.lifetime.start.p0(i64 8, ptr %6) #27
  %13 = load i64, ptr %3, align 8, !tbaa !35
  %14 = call zeroext i1 @RB_FIXNUM_P(i64 noundef %13) #28
  br i1 %14, label %19, label %15

15:                                               ; preds = %2
  %16 = load i64, ptr %3, align 8, !tbaa !35
  %17 = call i64 @rb_check_string_type(i64 noundef %16)
  store i64 %17, ptr %6, align 8, !tbaa !35
  %18 = call zeroext i1 @RB_NIL_P(i64 noundef %17) #28
  br i1 %18, label %19, label %22

19:                                               ; preds = %15, %2
  %20 = load i64, ptr %3, align 8, !tbaa !35
  %21 = call i32 @RB_NUM2UINT(i64 noundef %20)
  store i32 %21, ptr %5, align 4, !tbaa !34
  br label %97

22:                                               ; preds = %15
  call void @llvm.lifetime.start.p0(i64 8, ptr %7) #27
  %23 = call ptr @rb_string_value_cstr(ptr noundef %3)
  store ptr %23, ptr %7, align 8, !tbaa !64
  call void @llvm.lifetime.start.p0(i64 8, ptr %8) #27
  call void @llvm.lifetime.start.p0(i64 8, ptr %9) #27
  call void @llvm.lifetime.start.p0(i64 8, ptr %10) #27
  call void @llvm.lifetime.start.p0(i64 4, ptr %11) #27
  %24 = load ptr, ptr %4, align 8, !tbaa !70
  %25 = load i64, ptr %24, align 8, !tbaa !35
  %26 = icmp ne i64 %25, 0
  br i1 %26, label %36, label %27

27:                                               ; preds = %22
  %28 = call i64 @sysconf(i32 noundef 69) #27
  store i64 %28, ptr %10, align 8, !tbaa !35
  %29 = load i64, ptr %10, align 8, !tbaa !35
  %30 = icmp slt i64 %29, 0
  br i1 %30, label %31, label %32

31:                                               ; preds = %27
  store i64 4096, ptr %10, align 8, !tbaa !35
  br label %32

32:                                               ; preds = %31, %27
  %33 = load i64, ptr %10, align 8, !tbaa !35
  %34 = call i64 @rb_str_tmp_new(i64 noundef %33)
  %35 = load ptr, ptr %4, align 8, !tbaa !70
  store i64 %34, ptr %35, align 8, !tbaa !35
  br label %36

36:                                               ; preds = %32, %22
  %37 = load ptr, ptr %4, align 8, !tbaa !70
  %38 = load i64, ptr %37, align 8, !tbaa !35
  %39 = call ptr @RSTRING_PTR(i64 noundef %38)
  store ptr %39, ptr %9, align 8, !tbaa !64
  %40 = load ptr, ptr %4, align 8, !tbaa !70
  %41 = load i64, ptr %40, align 8, !tbaa !35
  %42 = call i64 @rb_str_capacity(i64 noundef %41) #29
  store i64 %42, ptr %10, align 8, !tbaa !35
  %43 = load ptr, ptr %4, align 8, !tbaa !70
  %44 = load i64, ptr %43, align 8, !tbaa !35
  %45 = load i64, ptr %10, align 8, !tbaa !35
  call void @rb_str_set_len(i64 noundef %44, i64 noundef %45)
  %46 = call ptr @rb_errno_ptr()
  store i32 0, ptr %46, align 4, !tbaa !34
  call void @llvm.lifetime.start.p0(i64 64, ptr %12) #27
  %47 = getelementptr inbounds nuw %struct.getgrnam_r_args, ptr %12, i32 0, i32 0
  %48 = load ptr, ptr %7, align 8, !tbaa !64
  store ptr %48, ptr %47, align 8, !tbaa !219
  %49 = getelementptr inbounds nuw %struct.getgrnam_r_args, ptr %12, i32 0, i32 1
  %50 = load ptr, ptr %9, align 8, !tbaa !64
  store ptr %50, ptr %49, align 8, !tbaa !224
  %51 = getelementptr inbounds nuw %struct.getgrnam_r_args, ptr %12, i32 0, i32 2
  %52 = load i64, ptr %10, align 8, !tbaa !35
  store i64 %52, ptr %51, align 8, !tbaa !225
  %53 = getelementptr inbounds nuw %struct.getgrnam_r_args, ptr %12, i32 0, i32 3
  store ptr null, ptr %53, align 8, !tbaa !226
  %54 = getelementptr inbounds nuw %struct.getgrnam_r_args, ptr %12, i32 0, i32 4
  call void @llvm.memset.p0.i64(ptr align 8 %54, i8 0, i64 32, i1 false)
  br label %55

55:                                               ; preds = %72, %36
  %56 = call ptr @rb_nogvl(ptr noundef @nogvl_getgrnam_r, ptr noundef %12, ptr noundef inttoptr (i64 -1 to ptr), ptr noundef null, i32 noundef 4)
  %57 = ptrtoint ptr %56 to i64
  %58 = trunc i64 %57 to i32
  store i32 %58, ptr %11, align 4, !tbaa !34
  %59 = icmp ne i32 %58, 0
  br i1 %59, label %60, label %85

60:                                               ; preds = %55
  %61 = load i32, ptr %11, align 4, !tbaa !34
  %62 = icmp ne i32 %61, 34
  br i1 %62, label %67, label %63

63:                                               ; preds = %60
  %64 = getelementptr inbounds nuw %struct.getgrnam_r_args, ptr %12, i32 0, i32 2
  %65 = load i64, ptr %64, align 8, !tbaa !225
  %66 = icmp uge i64 %65, 65536
  br i1 %66, label %67, label %72

67:                                               ; preds = %63, %60
  %68 = load ptr, ptr %4, align 8, !tbaa !70
  %69 = load i64, ptr %68, align 8, !tbaa !35
  %70 = call i64 @rb_str_resize(i64 noundef %69, i64 noundef 0)
  %71 = load i32, ptr %11, align 4, !tbaa !34
  call void @rb_syserr_fail(i32 noundef %71, ptr noundef @.str.179) #30
  unreachable

72:                                               ; preds = %63
  %73 = load ptr, ptr %4, align 8, !tbaa !70
  %74 = load i64, ptr %73, align 8, !tbaa !35
  %75 = getelementptr inbounds nuw %struct.getgrnam_r_args, ptr %12, i32 0, i32 2
  %76 = load i64, ptr %75, align 8, !tbaa !225
  call void @rb_str_modify_expand(i64 noundef %74, i64 noundef %76)
  %77 = load ptr, ptr %4, align 8, !tbaa !70
  %78 = load i64, ptr %77, align 8, !tbaa !35
  %79 = call ptr @RSTRING_PTR(i64 noundef %78)
  %80 = getelementptr inbounds nuw %struct.getgrnam_r_args, ptr %12, i32 0, i32 1
  store ptr %79, ptr %80, align 8, !tbaa !224
  %81 = load ptr, ptr %4, align 8, !tbaa !70
  %82 = load i64, ptr %81, align 8, !tbaa !35
  %83 = call i64 @rb_str_capacity(i64 noundef %82) #29
  %84 = getelementptr inbounds nuw %struct.getgrnam_r_args, ptr %12, i32 0, i32 2
  store i64 %83, ptr %84, align 8, !tbaa !225
  br label %55, !llvm.loop !227

85:                                               ; preds = %55
  %86 = getelementptr inbounds nuw %struct.getgrnam_r_args, ptr %12, i32 0, i32 3
  %87 = load ptr, ptr %86, align 8, !tbaa !226
  store ptr %87, ptr %8, align 8, !tbaa !228
  %88 = load ptr, ptr %8, align 8, !tbaa !228
  %89 = icmp ne ptr %88, null
  br i1 %89, label %93, label %90

90:                                               ; preds = %85
  %91 = load i64, ptr @rb_eArgError, align 8, !tbaa !35
  %92 = load i64, ptr %3, align 8, !tbaa !35
  call void (i64, ptr, ...) @rb_raise(i64 noundef %91, ptr noundef @.str.180, i64 noundef %92) #30
  unreachable

93:                                               ; preds = %85
  %94 = load ptr, ptr %8, align 8, !tbaa !228
  %95 = getelementptr inbounds nuw %struct.group, ptr %94, i32 0, i32 2
  %96 = load i32, ptr %95, align 8, !tbaa !229
  store i32 %96, ptr %5, align 4, !tbaa !34
  call void @llvm.lifetime.end.p0(i64 64, ptr %12) #27
  call void @llvm.lifetime.end.p0(i64 4, ptr %11) #27
  call void @llvm.lifetime.end.p0(i64 8, ptr %10) #27
  call void @llvm.lifetime.end.p0(i64 8, ptr %9) #27
  call void @llvm.lifetime.end.p0(i64 8, ptr %8) #27
  call void @llvm.lifetime.end.p0(i64 8, ptr %7) #27
  br label %97

97:                                               ; preds = %93, %19
  %98 = load i32, ptr %5, align 4, !tbaa !34
  call void @llvm.lifetime.end.p0(i64 8, ptr %6) #27
  call void @llvm.lifetime.end.p0(i64 4, ptr %5) #27
  ret i32 %98
}