; Function Attrs: nounwind sspstrong uwtable
define internal fastcc i32 @obj2gid(i64 noundef %0, ptr noundef nonnull captures(none) %1) unnamed_addr #1 {
  %3 = alloca i64, align 8
  %4 = alloca %struct.getgrnam_r_args, align 8
  store i64 %0, ptr %3, align 8, !tbaa !43
  %5 = and i64 %0, 1
  %.not30 = icmp eq i64 %5, 0
  br i1 %.not30, label %6, label %9

6:                                                ; preds = %2
  %7 = tail call i64 @rb_check_string_type(i64 noundef %0) #27
  %8 = icmp eq i64 %7, 4
  br i1 %8, label %9, label %12

9:                                                ; preds = %6, %2
  %10 = tail call i64 @rb_num2uint(i64 noundef %0) #27
  %11 = trunc i64 %10 to i32
  br label %59

12:                                               ; preds = %6
  %13 = call ptr @rb_string_value_cstr(ptr noundef nonnull %3) #27
  %14 = load i64, ptr %1, align 8, !tbaa !43
  %.not = icmp eq i64 %14, 0
  br i1 %.not, label %15, label %19

15:                                               ; preds = %12
  %16 = call i64 @sysconf(i32 noundef 69) #27
  %17 = icmp slt i64 %16, 0
  %spec.store.select = select i1 %17, i64 4096, i64 %16
  %18 = call i64 @rb_str_tmp_new(i64 noundef %spec.store.select) #27
  store i64 %18, ptr %1, align 8, !tbaa !43
  br label %19

19:                                               ; preds = %15, %12
  %20 = phi i64 [ %18, %15 ], [ %14, %12 ]
  %21 = inttoptr i64 %20 to ptr
  %22 = load i64, ptr %21, align 8, !tbaa !69, !noalias !281
  %23 = and i64 %22, 8192
  %.not.i.i = icmp eq i64 %23, 0
  %24 = getelementptr inbounds nuw i8, ptr %21, i64 24
  br i1 %.not.i.i, label %RSTRING_PTR.exit, label %25

25:                                               ; preds = %19
  %.sroa.2.0.copyload.i = load ptr, ptr %24, align 8
  br label %RSTRING_PTR.exit

RSTRING_PTR.exit:                                 ; preds = %19, %25
  %.sroa.2.0.i = phi ptr [ %.sroa.2.0.copyload.i, %25 ], [ %24, %19 ]
  %26 = call i64 @rb_str_capacity(i64 noundef %20) #28
  call void @rb_str_set_len(i64 noundef %20, i64 noundef %26) #27
  %27 = call ptr @rb_errno_ptr() #27
  store i32 0, ptr %27, align 4, !tbaa !60
  call void @llvm.lifetime.start.p0(i64 64, ptr nonnull %4) #27
  store ptr %13, ptr %4, align 8, !tbaa !284
  %28 = getelementptr inbounds nuw i8, ptr %4, i64 8
  store ptr %.sroa.2.0.i, ptr %28, align 8, !tbaa !289
  %29 = getelementptr inbounds nuw i8, ptr %4, i64 16
  store i64 %26, ptr %29, align 8, !tbaa !290
  %30 = getelementptr inbounds nuw i8, ptr %4, i64 24
  call void @llvm.memset.p0.i64(ptr noundef nonnull align 8 dereferenceable(40) %30, i8 0, i64 40, i1 false)
  %31 = call ptr @rb_nogvl(ptr noundef nonnull @nogvl_getgrnam_r, ptr noundef nonnull %4, ptr noundef nonnull inttoptr (i64 -1 to ptr), ptr noundef null, i32 noundef 4) #27
  %32 = ptrtoint ptr %31 to i64
  %33 = trunc i64 %32 to i32
  %.not2432 = icmp eq i32 %33, 0
  br i1 %.not2432, label %._crit_edge, label %.lr.ph

.lr.ph:                                           ; preds = %RSTRING_PTR.exit, %RSTRING_PTR.exit29
  %34 = phi i32 [ %51, %RSTRING_PTR.exit29 ], [ %33, %RSTRING_PTR.exit ]
  %35 = icmp ne i32 %34, 34
  %36 = load i64, ptr %29, align 8
  %37 = icmp ugt i64 %36, 65535
  %or.cond = select i1 %35, i1 true, i1 %37
  %38 = load i64, ptr %1, align 8, !tbaa !43
  br i1 %or.cond, label %39, label %41

39:                                               ; preds = %.lr.ph
  %40 = call i64 @rb_str_resize(i64 noundef %38, i64 noundef 0) #27
  call void @rb_syserr_fail(i32 noundef %34, ptr noundef nonnull @.str.179) #29
  unreachable

41:                                               ; preds = %.lr.ph
  call void @rb_str_modify_expand(i64 noundef %38, i64 noundef %36) #27
  %42 = load i64, ptr %1, align 8, !tbaa !43
  %43 = inttoptr i64 %42 to ptr
  %44 = load i64, ptr %43, align 8, !tbaa !69, !noalias !291
  %45 = and i64 %44, 8192
  %.not.i.i26 = icmp eq i64 %45, 0
  %46 = getelementptr inbounds nuw i8, ptr %43, i64 24
  br i1 %.not.i.i26, label %RSTRING_PTR.exit29, label %47

47:                                               ; preds = %41
  %.sroa.2.0.copyload.i27 = load ptr, ptr %46, align 8
  br label %RSTRING_PTR.exit29

RSTRING_PTR.exit29:                               ; preds = %41, %47
  %.sroa.2.0.i28 = phi ptr [ %.sroa.2.0.copyload.i27, %47 ], [ %46, %41 ]
  store ptr %.sroa.2.0.i28, ptr %28, align 8, !tbaa !289
  %48 = call i64 @rb_str_capacity(i64 noundef %42) #28
  store i64 %48, ptr %29, align 8, !tbaa !290
  %49 = call ptr @rb_nogvl(ptr noundef nonnull @nogvl_getgrnam_r, ptr noundef nonnull %4, ptr noundef nonnull inttoptr (i64 -1 to ptr), ptr noundef null, i32 noundef 4) #27
  %50 = ptrtoint ptr %49 to i64
  %51 = trunc i64 %50 to i32
  %.not24 = icmp eq i32 %51, 0
  br i1 %.not24, label %._crit_edge, label %.lr.ph, !llvm.loop !294

._crit_edge:                                      ; preds = %RSTRING_PTR.exit29, %RSTRING_PTR.exit
  %52 = load ptr, ptr %30, align 8, !tbaa !295
  %.not25 = icmp eq ptr %52, null
  br i1 %.not25, label %53, label %56

53:                                               ; preds = %._crit_edge
  %54 = load i64, ptr @rb_eArgError, align 8, !tbaa !43
  %55 = load i64, ptr %3, align 8, !tbaa !43
  call void (i64, ptr, ...) @rb_raise(i64 noundef %54, ptr noundef nonnull @.str.180, i64 noundef %55) #29
  unreachable

56:                                               ; preds = %._crit_edge
  %57 = getelementptr inbounds nuw i8, ptr %52, i64 16
  %58 = load i32, ptr %57, align 8, !tbaa !296
  call void @llvm.lifetime.end.p0(i64 64, ptr nonnull %4) #27
  br label %59

59:                                               ; preds = %56, %9
  %.0 = phi i32 [ %11, %9 ], [ %58, %56 ]
  ret i32 %.0
}